target datalayout = "e-m:e-p270:32:32-p271:32:32-p272:64:64-i64:64-i128:128-f80:128-n8:16:32:64-S128"
target triple = "x86_64-unknown-linux-gnu"

%"class.icu_75::CheckedArrayByteSink" = type <{ %"class.icu_75::ByteSink", ptr, i32, i32, i32, i8, [3 x i8] }>
%"class.icu_75::ByteSink" = type { ptr }

; Function Attrs: mustprogress nounwind uwtable
define void @_ZN6icu_7520CheckedArrayByteSink6AppendEPKci(ptr noundef nonnull align 8 dereferenceable(29) %this, ptr noundef %bytes, i32 noundef %n) unnamed_addr #0 align 2 {
entry:
  %this.addr = alloca ptr, align 8
  %bytes.addr = alloca ptr, align 8
  %n.addr = alloca i32, align 4
  %available = alloca i32, align 4
  store ptr %this, ptr %this.addr, align 8
  store ptr %bytes, ptr %bytes.addr, align 8
  store i32 %n, ptr %n.addr, align 4
  %this1 = load ptr, ptr %this.addr, align 8
  %0 = load i32, ptr %n.addr, align 4
  %cmp = icmp sle i32 %0, 0
  br i1 %cmp, label %if.then, label %if.end

if.then:                                          ; preds = %entry
  br label %return

if.end:                                           ; preds = %entry
  %1 = load i32, ptr %n.addr, align 4
  %appended_ = getelementptr inbounds %"class.icu_75::CheckedArrayByteSink", ptr %this1, i32 0, i32 4
  %2 = load i32, ptr %appended_, align 8
  %sub = sub nsw i32 2147483647, %2
  %cmp2 = icmp sgt i32 %1, %sub
  br i1 %cmp2, label %if.then3, label %if.end5

if.then3:                                         ; preds = %if.end
  %appended_4 = getelementptr inbounds %"class.icu_75::CheckedArrayByteSink", ptr %this1, i32 0, i32 4
  store i32 2147483647, ptr %appended_4, align 8
  %overflowed_ = getelementptr inbounds %"class.icu_75::CheckedArrayByteSink", ptr %this1, i32 0, i32 5
  store i8 1, ptr %overflowed_, align 4
  br label %return

if.end5:                                          ; preds = %if.end
  %3 = load i32, ptr %n.addr, align 4
  %appended_6 = getelementptr inbounds %"class.icu_75::CheckedArrayByteSink", ptr %this1, i32 0, i32 4
  %4 = load i32, ptr %appended_6, align 8
  %add = add nsw i32 %4, %3
  store i32 %add, ptr %appended_6, align 8
  %capacity_ = getelementptr inbounds %"class.icu_75::CheckedArrayByteSink", ptr %this1, i32 0, i32 2
  %5 = load i32, ptr %capacity_, align 8
  %size_ = getelementptr inbounds %"class.icu_75::CheckedArrayByteSink", ptr %this1, i32 0, i32 3
  %6 = load i32, ptr %size_, align 4
  %sub7 = sub nsw i32 %5, %6
  store i32 %sub7, ptr %available, align 4
  %7 = load i32, ptr %n.addr, align 4
  %8 = load i32, ptr %available, align 4
  %cmp8 = icmp sgt i32 %7, %8
  br i1 %cmp8, label %if.then9, label %if.end11

if.then9:                                         ; preds = %if.end5
  %9 = load i32, ptr %available, align 4
  store i32 %9, ptr %n.addr, align 4
  %overflowed_10 = getelementptr inbounds %"class.icu_75::CheckedArrayByteSink", ptr %this1, i32 0, i32 5
  store i8 1, ptr %overflowed_10, align 4
  br label %if.end11

if.end11:                                         ; preds = %if.then9, %if.end5
  %10 = load i32, ptr %n.addr, align 4
  %cmp12 = icmp sgt i32 %10, 0
  br i1 %cmp12, label %land.lhs.true, label %if.end20

land.lhs.true:                                    ; preds = %if.end11
  %11 = load ptr, ptr %bytes.addr, align 8
  %outbuf_ = getelementptr inbounds %"class.icu_75::CheckedArrayByteSink", ptr %this1, i32 0, i32 1
  %12 = load ptr, ptr %outbuf_, align 8
  %size_13 = getelementptr inbounds %"class.icu_75::CheckedArrayByteSink", ptr %this1, i32 0, i32 3
  %13 = load i32, ptr %size_13, align 4
  %idx.ext = sext i32 %13 to i64
  %add.ptr = getelementptr inbounds i8, ptr %12, i64 %idx.ext
  %cmp14 = icmp ne ptr %11, %add.ptr
  br i1 %cmp14, label %if.then15, label %if.end20

if.then15:                                        ; preds = %land.lhs.true
  br label %do.body

do.body:                                          ; preds = %if.then15
  %outbuf_16 = getelementptr inbounds %"class.icu_75::CheckedArrayByteSink", ptr %this1, i32 0, i32 1
  %14 = load ptr, ptr %outbuf_16, align 8
  %size_17 = getelementptr inbounds %"class.icu_75::CheckedArrayByteSink", ptr %this1, i32 0, i32 3
  %15 = load i32, ptr %size_17, align 4
  %idx.ext18 = sext i32 %15 to i64
  %add.ptr19 = getelementptr inbounds i8, ptr %14, i64 %idx.ext18
  %16 = load ptr, ptr %bytes.addr, align 8
  %17 = load i32, ptr %n.addr, align 4
  %conv = sext i32 %17 to i64
  call void @llvm.memcpy.p0.p0.i64(ptr align 1 %add.ptr19, ptr align 1 %16, i64 %conv, i1 false)
  br label %do.end

do.end:                                           ; preds = %do.body
  br label %if.end20

if.end20:                                         ; preds = %do.end, %land.lhs.true, %if.end11
  %18 = load i32, ptr %n.addr, align 4
  %size_21 = getelementptr inbounds %"class.icu_75::CheckedArrayByteSink", ptr %this1, i32 0, i32 3
  %19 = load i32, ptr %size_21, align 4
  %add22 = add nsw i32 %19, %18
  store i32 %add22, ptr %size_21, align 4
  br label %return

return:                                           ; preds = %if.end20, %if.then3, %if.then
  ret void
}