; Function Attrs: mustprogress nofree norecurse nosync nounwind willreturn memory(readwrite, inaccessiblemem: none) uwtable
define void @_ZN6icu_7520CheckedArrayByteSink6AppendEPKci(ptr nocapture noundef nonnull align 8 dereferenceable(29) %this, ptr noundef readonly %bytes, i32 noundef %n) unnamed_addr #6 align 2 {
entry:
  %cmp = icmp slt i32 %n, 1
  br i1 %cmp, label %return, label %if.end

if.end:                                           ; preds = %entry
  %appended_ = getelementptr inbounds i8, ptr %this, i64 24
  %0 = load i32, ptr %appended_, align 8
  %sub = sub nsw i32 2147483647, %0
  %cmp2 = icmp ult i32 %sub, %n
  br i1 %cmp2, label %if.then3, label %if.end5

if.then3:                                         ; preds = %if.end
  store i32 2147483647, ptr %appended_, align 8
  %overflowed_ = getelementptr inbounds i8, ptr %this, i64 28
  store i8 1, ptr %overflowed_, align 4
  br label %return

if.end5:                                          ; preds = %if.end
  %add = add nsw i32 %0, %n
  store i32 %add, ptr %appended_, align 8
  %capacity_ = getelementptr inbounds i8, ptr %this, i64 16
  %1 = load i32, ptr %capacity_, align 8
  %size_ = getelementptr inbounds i8, ptr %this, i64 20
  %2 = load i32, ptr %size_, align 4
  %sub7 = sub nsw i32 %1, %2
  %cmp8 = icmp slt i32 %sub7, %n
  br i1 %cmp8, label %if.end11, label %land.lhs.true

if.end11:                                         ; preds = %if.end5
  %overflowed_10 = getelementptr inbounds i8, ptr %this, i64 28
  store i8 1, ptr %overflowed_10, align 4
  %cmp12 = icmp sgt i32 %sub7, 0
  br i1 %cmp12, label %land.lhs.true, label %if.end20

land.lhs.true:                                    ; preds = %if.end5, %if.end11
  %n.addr.012 = phi i32 [ %sub7, %if.end11 ], [ %n, %if.end5 ]
  %outbuf_ = getelementptr inbounds i8, ptr %this, i64 8
  %3 = load ptr, ptr %outbuf_, align 8
  %idx.ext = sext i32 %2 to i64
  %add.ptr = getelementptr inbounds i8, ptr %3, i64 %idx.ext
  %cmp14.not = icmp eq ptr %add.ptr, %bytes
  br i1 %cmp14.not, label %if.end20, label %do.body

do.body:                                          ; preds = %land.lhs.true
  %conv = zext nneg i32 %n.addr.012 to i64
  tail call void @llvm.memcpy.p0.p0.i64(ptr align 1 %add.ptr, ptr align 1 %bytes, i64 %conv, i1 false)
  %.pre = load i32, ptr %size_, align 4
  br label %if.end20

if.end20:                                         ; preds = %do.body, %land.lhs.true, %if.end11
  %4 = phi i32 [ %.pre, %do.body ], [ %2, %land.lhs.true ], [ %2, %if.end11 ]
  %n.addr.011 = phi i32 [ %n.addr.012, %do.body ], [ %n.addr.012, %land.lhs.true ], [ %sub7, %if.end11 ]
  %add22 = add nsw i32 %4, %n.addr.011
  store i32 %add22, ptr %size_, align 4
  br label %return

return:                                           ; preds = %entry, %if.end20, %if.then3
  ret void
}